target datalayout = "e-m:e-p270:32:32-p271:32:32-p272:64:64-i64:64-i128:128-f80:128-n8:16:32:64-S128"
target triple = "x86_64-pc-linux-gnu"

@fp_gtk_widget_get_style_context = internal global ptr null, align 8
@fp_gtk_style_context_save = internal global ptr null, align 8
@fp_gtk_style_context_restore = internal global ptr null, align 8
@fp_gtk_render_focus = internal global ptr null, align 8
@cr = internal global ptr null, align 8
@gtk3_widget = internal global ptr null, align 8

; Function Attrs: nounwind uwtable
define internal void @gtk3_paint_focus(i32 noundef %0, i32 noundef %1, ptr noundef %2, i32 noundef %3, i32 noundef %4, i32 noundef %5, i32 noundef %6) #0 {
  %8 = alloca i32, align 4
  %9 = alloca i32, align 4
  %10 = alloca ptr, align 8
  %11 = alloca i32, align 4
  %12 = alloca i32, align 4
  %13 = alloca i32, align 4
  %14 = alloca i32, align 4
  %15 = alloca ptr, align 8
  store i32 %0, ptr %8, align 4
  store i32 %1, ptr %9, align 4
  store ptr %2, ptr %10, align 8
  store i32 %3, ptr %11, align 4
  store i32 %4, ptr %12, align 4
  store i32 %5, ptr %13, align 4
  store i32 %6, ptr %14, align 4
  %16 = load i32, ptr %8, align 4
  %17 = call ptr @gtk3_get_widget(i32 noundef %16)
  store ptr %17, ptr @gtk3_widget, align 8
  %18 = load ptr, ptr @fp_gtk_widget_get_style_context, align 8
  %19 = load ptr, ptr @gtk3_widget, align 8
  %20 = call ptr %18(ptr noundef %19)
  store ptr %20, ptr %15, align 8
  %21 = load ptr, ptr @fp_gtk_style_context_save, align 8
  %22 = load ptr, ptr %15, align 8
  call void %21(ptr noundef %22)
  %23 = load ptr, ptr %10, align 8
  %24 = load ptr, ptr %15, align 8
  call void @transform_detail_string(ptr noundef %23, ptr noundef %24)
  %25 = load ptr, ptr @fp_gtk_render_focus, align 8
  %26 = load ptr, ptr %15, align 8
  %27 = load ptr, ptr @cr, align 8
  %28 = load i32, ptr %11, align 4
  %29 = sitofp i32 %28 to double
  %30 = load i32, ptr %12, align 4
  %31 = sitofp i32 %30 to double
  %32 = load i32, ptr %13, align 4
  %33 = sitofp i32 %32 to double
  %34 = load i32, ptr %14, align 4
  %35 = sitofp i32 %34 to double
  call void %25(ptr noundef %26, ptr noundef %27, double noundef %29, double noundef %31, double noundef %33, double noundef %35)
  %36 = load ptr, ptr @fp_gtk_style_context_restore, align 8
  %37 = load ptr, ptr %15, align 8
  call void %36(ptr noundef %37)
  ret void
}