; Function Attrs: nounwind uwtable
define internal void @gtk3_paint_focus(i32 noundef %0, i32 %1, ptr noundef %2, i32 noundef %3, i32 noundef %4, i32 noundef %5, i32 noundef %6) #0 {
  %8 = tail call fastcc ptr @gtk3_get_widget(i32 noundef %0)
  store ptr %8, ptr @gtk3_widget, align 8
  %9 = load ptr, ptr @fp_gtk_widget_get_style_context, align 8
  %10 = tail call ptr %9(ptr noundef %8) #19
  %11 = load ptr, ptr @fp_gtk_style_context_save, align 8
  tail call void %11(ptr noundef %10) #19
  tail call fastcc void @transform_detail_string(ptr noundef %2, ptr noundef %10)
  %12 = load ptr, ptr @fp_gtk_render_focus, align 8
  %13 = load ptr, ptr @cr, align 8
  %14 = sitofp i32 %3 to double
  %15 = sitofp i32 %4 to double
  %16 = sitofp i32 %5 to double
  %17 = sitofp i32 %6 to double
  tail call void %12(ptr noundef %10, ptr noundef %13, double noundef %14, double noundef %15, double noundef %16, double noundef %17) #19
  %18 = load ptr, ptr @fp_gtk_style_context_restore, align 8
  tail call void %18(ptr noundef %10) #19
  ret void
}